target datalayout = "e-m:e-p270:32:32-p271:32:32-p272:64:64-i64:64-i128:128-f80:128-n8:16:32:64-S128"
target triple = "x86_64-pc-linux-gnu"

%struct.ident_t = type { i32, i32, i32, i32, ptr }
%class.anon.393 = type { ptr, ptr }

@.str.6 = private unnamed_addr constant [131 x i8] c"generated/home/dtcxzyw/WorkSpace/Projects/compilers/llvm-opt-benchmark/bench/open3d/Open3D/cpp/open3d/t/io/file_format/FilePCD.cpp\00", align 1
@1 = private unnamed_addr constant %struct.ident_t { i32 0, i32 514, i32 0, i32 22, ptr @0 }, align 8
@__PRETTY_FUNCTION__._ZN6open3d1t2ioL12ColorToUint8IaEEvPKT_Ph = private unnamed_addr constant [92 x i8] c"void open3d::t::io::ColorToUint8(const scalar_t *, std::uint8_t *) [scalar_t = signed char]\00", align 1
@.str.138 = private unnamed_addr constant [101 x i8] c"Color format not supported. Supported color format includes Float32, Float64, UInt8, UInt16, UInt32.\00", align 1

; Function Attrs: alwaysinline mustprogress nounwind
define internal ptr @memcpy.inline(ptr noalias nonnull %0, ptr noalias nonnull %1, i64 %2) #22 {
  %4 = alloca ptr, align 8
  %5 = alloca ptr, align 8
  %6 = alloca i64, align 8
  store ptr %0, ptr %4, align 8, !tbaa !86
  store ptr %1, ptr %5, align 8, !tbaa !86
  store i64 %2, ptr %6, align 8, !tbaa !30
  %7 = load ptr, ptr %4, align 8, !tbaa !86
  %8 = load ptr, ptr %5, align 8, !tbaa !86
  %9 = load i64, ptr %6, align 8, !tbaa !30
  %10 = load ptr, ptr %4, align 8, !tbaa !86
  %11 = call i64 @llvm.objectsize.i64.p0(ptr %10, i1 false, i1 true, i1 false)
  %12 = call ptr @__memcpy_chk(ptr noundef %7, ptr noundef %8, i64 noundef %9, i64 noundef %11) #7
  ret ptr %12
}

; Function Attrs: mustprogress ssp uwtable
define internal void @_ZN6open3d1t2ioL12ColorToUint8IaEEvPKT_Ph(ptr noundef %0, ptr noundef %1) #3 {
  %3 = alloca ptr, align 8
  %4 = alloca ptr, align 8
  store ptr %0, ptr %3, align 8, !tbaa !160
  store ptr %1, ptr %4, align 8, !tbaa !160
  call void @_ZN6open3d7utility6Logger9LogError_IJEEEvPKciS4_S4_DpOT_(ptr noundef @.str.6, i32 noundef 841, ptr noundef @__PRETTY_FUNCTION__._ZN6open3d1t2ioL12ColorToUint8IaEEvPKT_Ph, ptr noundef @.str.138) #32
  unreachable
}

; Function Attrs: inlinehint mustprogress ssp uwtable
define internal void @"_ZZZZN6open3d1t2ioL17PackColorsToFloatERKNS_4core6TensorEENK3$_0clEvENKUlvE1_clEvENKUllE_clEl"(ptr noundef nonnull align 8 dereferenceable(16) %0, i64 noundef %1) #17 align 2 {
  %3 = alloca ptr, align 8
  %4 = alloca i64, align 8
  %5 = alloca [4 x i8], align 1
  %6 = alloca float, align 4
  store ptr %0, ptr %3, align 8, !tbaa !86
  store i64 %1, ptr %4, align 8, !tbaa !30
  %7 = load ptr, ptr %3, align 8
  call void @llvm.lifetime.start.p0(i64 4, ptr %5) #7
  call void @llvm.memset.p0.i64(ptr align 1 %5, i8 0, i64 4, i1 false)
  %8 = getelementptr inbounds nuw %class.anon.393, ptr %7, i32 0, i32 0
  %9 = load ptr, ptr %8, align 8, !tbaa !1618
  %10 = load ptr, ptr %9, align 8, !tbaa !160
  %11 = load i64, ptr %4, align 8, !tbaa !30
  %12 = mul nsw i64 3, %11
  %13 = getelementptr inbounds i8, ptr %10, i64 %12
  %14 = getelementptr inbounds [4 x i8], ptr %5, i64 0, i64 0
  call void @_ZN6open3d1t2ioL12ColorToUint8IaEEvPKT_Ph(ptr noundef %13, ptr noundef %14)
  call void @llvm.lifetime.start.p0(i64 4, ptr %6) #7
  store float 0.000000e+00, ptr %6, align 4, !tbaa !68
  %15 = getelementptr inbounds [4 x i8], ptr %5, i64 0, i64 0
  %16 = call ptr @memcpy.inline(ptr noundef %6, ptr noundef %15, i64 noundef 4) #7
  %17 = load float, ptr %6, align 4, !tbaa !68
  %18 = getelementptr inbounds nuw %class.anon.393, ptr %7, i32 0, i32 1
  %19 = load ptr, ptr %18, align 8, !tbaa !1620
  %20 = load ptr, ptr %19, align 8, !tbaa !528
  %21 = load i64, ptr %4, align 8, !tbaa !30
  %22 = getelementptr inbounds float, ptr %20, i64 %21
  store float %17, ptr %22, align 4, !tbaa !68
  call void @llvm.lifetime.end.p0(i64 4, ptr %6) #7
  call void @llvm.lifetime.end.p0(i64 4, ptr %5) #7
  ret void
}

; Function Attrs: alwaysinline norecurse nounwind ssp uwtable
define internal void @"_ZN6open3d4core15ParallelForCPU_IZZZNS_1t2ioL17PackColorsToFloatERKNS0_6TensorEENK3$_0clEvENKUlvE1_clEvEUllE_EEvRKNS0_6DeviceElRKT_.omp_outlined"(ptr noalias noundef %0, ptr noalias noundef %1, ptr noundef nonnull align 8 dereferenceable(8) %2, ptr noundef nonnull align 8 dereferenceable(16) %3) #31 personality ptr @__gxx_personality_v0 {
  %5 = alloca ptr, align 8
  %6 = alloca ptr, align 8
  %7 = alloca ptr, align 8
  %8 = alloca ptr, align 8
  %9 = alloca ptr, align 8
  %10 = alloca i64, align 8
  %11 = alloca i64, align 8
  %12 = alloca i64, align 8
  %13 = alloca i64, align 8
  %14 = alloca i64, align 8
  %15 = alloca i64, align 8
  %16 = alloca i64, align 8
  %17 = alloca i32, align 4
  %18 = alloca i64, align 8
  store ptr %0, ptr %5, align 8, !tbaa !93
  store ptr %1, ptr %6, align 8, !tbaa !93
  store ptr %2, ptr %7, align 8, !tbaa !126
  store ptr %3, ptr %8, align 8, !tbaa !86
  %19 = load ptr, ptr %7, align 8, !tbaa !126
  %20 = load ptr, ptr %8, align 8, !tbaa !86
  store ptr %20, ptr %9, align 8
  call void @llvm.lifetime.start.p0(i64 8, ptr %10) #7
  call void @llvm.lifetime.start.p0(i64 8, ptr %11) #7
  %21 = load i64, ptr %19, align 8, !tbaa !30
  store i64 %21, ptr %11, align 8, !tbaa !30
  call void @llvm.lifetime.start.p0(i64 8, ptr %12) #7
  %22 = load i64, ptr %11, align 8, !tbaa !30
  %23 = sub nsw i64 %22, 0
  %24 = sdiv i64 %23, 1
  %25 = sub nsw i64 %24, 1
  store i64 %25, ptr %12, align 8, !tbaa !30
  call void @llvm.lifetime.start.p0(i64 8, ptr %13) #7
  store i64 0, ptr %13, align 8, !tbaa !30
  call void @llvm.lifetime.end.p0(i64 8, ptr %13) #7
  %26 = load i64, ptr %11, align 8, !tbaa !30
  %27 = icmp slt i64 0, %26
  br i1 %27, label %28, label %62

28:                                               ; preds = %4
  call void @llvm.lifetime.start.p0(i64 8, ptr %14) #7
  store i64 0, ptr %14, align 8, !tbaa !30
  call void @llvm.lifetime.start.p0(i64 8, ptr %15) #7
  %29 = load i64, ptr %12, align 8, !tbaa !30
  store i64 %29, ptr %15, align 8, !tbaa !30
  call void @llvm.lifetime.start.p0(i64 8, ptr %16) #7
  store i64 1, ptr %16, align 8, !tbaa !30
  call void @llvm.lifetime.start.p0(i64 4, ptr %17) #7
  store i32 0, ptr %17, align 4, !tbaa !121
  call void @llvm.lifetime.start.p0(i64 8, ptr %18) #7
  %30 = load ptr, ptr %5, align 8
  %31 = load i32, ptr %30, align 4, !tbaa !121
  call void @__kmpc_for_static_init_8(ptr @1, i32 %31, i32 34, ptr %17, ptr %14, ptr %15, ptr %16, i64 1, i64 1)
  %32 = load i64, ptr %15, align 8, !tbaa !30
  %33 = load i64, ptr %12, align 8, !tbaa !30
  %34 = icmp sgt i64 %32, %33
  br i1 %34, label %35, label %37

35:                                               ; preds = %28
  %36 = load i64, ptr %12, align 8, !tbaa !30
  br label %39

37:                                               ; preds = %28
  %38 = load i64, ptr %15, align 8, !tbaa !30
  br label %39

39:                                               ; preds = %37, %35
  %40 = phi i64 [ %36, %35 ], [ %38, %37 ]
  store i64 %40, ptr %15, align 8, !tbaa !30
  %41 = load i64, ptr %14, align 8, !tbaa !30
  store i64 %41, ptr %10, align 8, !tbaa !30
  br label %42

42:                                               ; preds = %55, %39
  %43 = load i64, ptr %10, align 8, !tbaa !30
  %44 = load i64, ptr %15, align 8, !tbaa !30
  %45 = icmp sle i64 %43, %44
  br i1 %45, label %47, label %46

46:                                               ; preds = %42
  br label %58

47:                                               ; preds = %42
  %48 = load i64, ptr %10, align 8, !tbaa !30
  %49 = mul nsw i64 %48, 1
  %50 = add nsw i64 0, %49
  store i64 %50, ptr %18, align 8, !tbaa !30
  %51 = load ptr, ptr %9, align 8, !tbaa !86
  %52 = load i64, ptr %18, align 8, !tbaa !30
  invoke void @"_ZZZZN6open3d1t2ioL17PackColorsToFloatERKNS_4core6TensorEENK3$_0clEvENKUlvE1_clEvENKUllE_clEl"(ptr noundef nonnull align 8 dereferenceable(16) %51, i64 noundef %52)
          to label %53 unwind label %63

53:                                               ; preds = %47
  br label %54

54:                                               ; preds = %53
  br label %55

55:                                               ; preds = %54
  %56 = load i64, ptr %10, align 8, !tbaa !30
  %57 = add nsw i64 %56, 1
  store i64 %57, ptr %10, align 8, !tbaa !30
  br label %42

58:                                               ; preds = %46
  br label %59

59:                                               ; preds = %58
  %60 = load ptr, ptr %5, align 8
  %61 = load i32, ptr %60, align 4, !tbaa !121
  call void @__kmpc_for_static_fini(ptr @1, i32 %61)
  call void @llvm.lifetime.end.p0(i64 8, ptr %18) #7
  call void @llvm.lifetime.end.p0(i64 4, ptr %17) #7
  call void @llvm.lifetime.end.p0(i64 8, ptr %16) #7
  call void @llvm.lifetime.end.p0(i64 8, ptr %15) #7
  call void @llvm.lifetime.end.p0(i64 8, ptr %14) #7
  br label %62

62:                                               ; preds = %59, %4
  call void @llvm.lifetime.end.p0(i64 8, ptr %12) #7
  call void @llvm.lifetime.end.p0(i64 8, ptr %11) #7
  call void @llvm.lifetime.end.p0(i64 8, ptr %10) #7
  ret void

63:                                               ; preds = %47
  %64 = landingpad { ptr, i32 }
          catch ptr null
  %65 = extractvalue { ptr, i32 } %64, 0
  call void @__clang_call_terminate(ptr %65) #34
  unreachable
}